target datalayout = "e-m:e-p270:32:32-p271:32:32-p272:64:64-i64:64-i128:128-f80:128-n8:16:32:64-S128"
target triple = "x86_64-pc-linux-gnu"

%struct.ExprEvalStep = type { i64, ptr, ptr, %union.anon }
%union.anon = type { %struct.anon.23 }
%struct.anon.23 = type { ptr, ptr, i32, i32, ptr, ptr }
%struct.ExprContext = type { i32, ptr, ptr, ptr, ptr, ptr, ptr, ptr, ptr, ptr, i64, i8, i64, i8, ptr, ptr, ptr, ptr }
%struct.ItemPointerData = type { %struct.BlockIdData, i16 }
%struct.BlockIdData = type { i16, i16 }
%struct.HeapTupleData = type { i32, %struct.ItemPointerData, i32, ptr }
%struct.anon.49 = type { i32, [0 x i8] }
%struct.anon.31 = type { i32, i32, ptr, ptr, ptr }

@CurrentMemoryContext = external global ptr, align 8

; Function Attrs: inlinehint nounwind uwtable
define internal i64 @HeapTupleGetDatum(ptr noundef %0) #2 {
  %2 = alloca ptr, align 8
  store ptr %0, ptr %2, align 8
  %3 = load ptr, ptr %2, align 8
  %4 = getelementptr inbounds nuw %struct.HeapTupleData, ptr %3, i32 0, i32 3
  %5 = load ptr, ptr %4, align 8
  %6 = call i64 @HeapTupleHeaderGetDatum(ptr noundef %5)
  ret i64 %6
}

; Function Attrs: inlinehint nounwind uwtable
define internal i32 @HeapTupleHeaderGetDatumLength(ptr noundef %0) #2 {
  %2 = alloca ptr, align 8
  store ptr %0, ptr %2, align 8
  %3 = load ptr, ptr %2, align 8
  %4 = getelementptr inbounds nuw %struct.anon.49, ptr %3, i32 0, i32 0
  %5 = load i32, ptr %4, align 4
  %6 = lshr i32 %5, 2
  %7 = and i32 %6, 1073741823
  ret i32 %7
}

; Function Attrs: inlinehint nounwind uwtable
define internal ptr @MemoryContextSwitchTo(ptr noundef %0) #2 {
  %2 = alloca ptr, align 8
  %3 = alloca ptr, align 8
  store ptr %0, ptr %2, align 8
  call void @llvm.lifetime.start.p0(i64 8, ptr %3) #11
  %4 = load ptr, ptr @CurrentMemoryContext, align 8
  store ptr %4, ptr %3, align 8
  %5 = load ptr, ptr %2, align 8
  store ptr %5, ptr @CurrentMemoryContext, align 8
  %6 = load ptr, ptr %3, align 8
  call void @llvm.lifetime.end.p0(i64 8, ptr %3) #11
  ret ptr %6
}

; Function Attrs: inlinehint nounwind uwtable
define internal ptr @DatumGetPointer(i64 noundef %0) #2 {
  %2 = alloca i64, align 8
  store i64 %0, ptr %2, align 8
  %3 = load i64, ptr %2, align 8
  %4 = inttoptr i64 %3 to ptr
  ret ptr %4
}

; Function Attrs: nounwind uwtable
define dso_local void @ExecEvalConvertRowtype(ptr noundef %0, ptr noundef %1, ptr noundef %2) #0 {
  %4 = alloca ptr, align 8
  %5 = alloca ptr, align 8
  %6 = alloca ptr, align 8
  %7 = alloca ptr, align 8
  %8 = alloca i64, align 8
  %9 = alloca ptr, align 8
  %10 = alloca %struct.HeapTupleData, align 8
  %11 = alloca ptr, align 8
  %12 = alloca ptr, align 8
  %13 = alloca i8, align 1
  %14 = alloca i32, align 4
  %15 = alloca ptr, align 8
  store ptr %0, ptr %4, align 8
  store ptr %1, ptr %5, align 8
  store ptr %2, ptr %6, align 8
  call void @llvm.lifetime.start.p0(i64 8, ptr %7) #11
  call void @llvm.lifetime.start.p0(i64 8, ptr %8) #11
  call void @llvm.lifetime.start.p0(i64 8, ptr %9) #11
  call void @llvm.lifetime.start.p0(i64 24, ptr %10) #11
  call void @llvm.lifetime.start.p0(i64 8, ptr %11) #11
  call void @llvm.lifetime.start.p0(i64 8, ptr %12) #11
  call void @llvm.lifetime.start.p0(i64 1, ptr %13) #11
  store i8 0, ptr %13, align 1
  %16 = load ptr, ptr %5, align 8
  %17 = getelementptr inbounds nuw %struct.ExprEvalStep, ptr %16, i32 0, i32 2
  %18 = load ptr, ptr %17, align 8
  %19 = load i8, ptr %18, align 1, !range !7, !noundef !8
  %20 = trunc i8 %19 to i1
  br i1 %20, label %21, label %22

21:                                               ; preds = %3
  store i32 1, ptr %14, align 4
  br label %96

22:                                               ; preds = %3
  %23 = load ptr, ptr %5, align 8
  %24 = getelementptr inbounds nuw %struct.ExprEvalStep, ptr %23, i32 0, i32 1
  %25 = load ptr, ptr %24, align 8
  %26 = load i64, ptr %25, align 8
  store i64 %26, ptr %8, align 8
  %27 = load i64, ptr %8, align 8
  %28 = call ptr @DatumGetPointer(i64 noundef %27)
  %29 = call ptr @pg_detoast_datum(ptr noundef %28)
  store ptr %29, ptr %9, align 8
  %30 = load ptr, ptr %5, align 8
  %31 = getelementptr inbounds nuw %struct.ExprEvalStep, ptr %30, i32 0, i32 3
  %32 = getelementptr inbounds nuw %struct.anon.31, ptr %31, i32 0, i32 0
  %33 = load i32, ptr %32, align 8
  %34 = load ptr, ptr %5, align 8
  %35 = getelementptr inbounds nuw %struct.ExprEvalStep, ptr %34, i32 0, i32 3
  %36 = getelementptr inbounds nuw %struct.anon.31, ptr %35, i32 0, i32 2
  %37 = load ptr, ptr %36, align 8
  %38 = call ptr @get_cached_rowtype(i32 noundef %33, i32 noundef -1, ptr noundef %37, ptr noundef %13)
  store ptr %38, ptr %11, align 8
  %39 = load ptr, ptr %11, align 8
  call void @IncrTupleDescRefCount(ptr noundef %39)
  %40 = load ptr, ptr %5, align 8
  %41 = getelementptr inbounds nuw %struct.ExprEvalStep, ptr %40, i32 0, i32 3
  %42 = getelementptr inbounds nuw %struct.anon.31, ptr %41, i32 0, i32 1
  %43 = load i32, ptr %42, align 4
  %44 = load ptr, ptr %5, align 8
  %45 = getelementptr inbounds nuw %struct.ExprEvalStep, ptr %44, i32 0, i32 3
  %46 = getelementptr inbounds nuw %struct.anon.31, ptr %45, i32 0, i32 3
  %47 = load ptr, ptr %46, align 8
  %48 = call ptr @get_cached_rowtype(i32 noundef %43, i32 noundef -1, ptr noundef %47, ptr noundef %13)
  store ptr %48, ptr %12, align 8
  %49 = load ptr, ptr %12, align 8
  call void @IncrTupleDescRefCount(ptr noundef %49)
  %50 = load i8, ptr %13, align 1, !range !7, !noundef !8
  %51 = trunc i8 %50 to i1
  br i1 %51, label %52, label %65

52:                                               ; preds = %22
  call void @llvm.lifetime.start.p0(i64 8, ptr %15) #11
  %53 = load ptr, ptr %6, align 8
  %54 = getelementptr inbounds nuw %struct.ExprContext, ptr %53, i32 0, i32 4
  %55 = load ptr, ptr %54, align 8
  %56 = call ptr @MemoryContextSwitchTo(ptr noundef %55)
  store ptr %56, ptr %15, align 8
  %57 = load ptr, ptr %11, align 8
  %58 = load ptr, ptr %12, align 8
  %59 = call ptr @convert_tuples_by_name(ptr noundef %57, ptr noundef %58)
  %60 = load ptr, ptr %5, align 8
  %61 = getelementptr inbounds nuw %struct.ExprEvalStep, ptr %60, i32 0, i32 3
  %62 = getelementptr inbounds nuw %struct.anon.31, ptr %61, i32 0, i32 4
  store ptr %59, ptr %62, align 8
  %63 = load ptr, ptr %15, align 8
  %64 = call ptr @MemoryContextSwitchTo(ptr noundef %63)
  call void @llvm.lifetime.end.p0(i64 8, ptr %15) #11
  br label %65

65:                                               ; preds = %52, %22
  %66 = load ptr, ptr %9, align 8
  %67 = call i32 @HeapTupleHeaderGetDatumLength(ptr noundef %66)
  %68 = getelementptr inbounds nuw %struct.HeapTupleData, ptr %10, i32 0, i32 0
  store i32 %67, ptr %68, align 8
  %69 = load ptr, ptr %9, align 8
  %70 = getelementptr inbounds nuw %struct.HeapTupleData, ptr %10, i32 0, i32 3
  store ptr %69, ptr %70, align 8
  %71 = load ptr, ptr %5, align 8
  %72 = getelementptr inbounds nuw %struct.ExprEvalStep, ptr %71, i32 0, i32 3
  %73 = getelementptr inbounds nuw %struct.anon.31, ptr %72, i32 0, i32 4
  %74 = load ptr, ptr %73, align 8
  %75 = icmp ne ptr %74, null
  br i1 %75, label %76, label %87

76:                                               ; preds = %65
  %77 = load ptr, ptr %5, align 8
  %78 = getelementptr inbounds nuw %struct.ExprEvalStep, ptr %77, i32 0, i32 3
  %79 = getelementptr inbounds nuw %struct.anon.31, ptr %78, i32 0, i32 4
  %80 = load ptr, ptr %79, align 8
  %81 = call ptr @execute_attr_map_tuple(ptr noundef %10, ptr noundef %80)
  store ptr %81, ptr %7, align 8
  %82 = load ptr, ptr %7, align 8
  %83 = call i64 @HeapTupleGetDatum(ptr noundef %82)
  %84 = load ptr, ptr %5, align 8
  %85 = getelementptr inbounds nuw %struct.ExprEvalStep, ptr %84, i32 0, i32 1
  %86 = load ptr, ptr %85, align 8
  store i64 %83, ptr %86, align 8
  br label %93

87:                                               ; preds = %65
  %88 = load ptr, ptr %12, align 8
  %89 = call i64 @heap_copy_tuple_as_datum(ptr noundef %10, ptr noundef %88)
  %90 = load ptr, ptr %5, align 8
  %91 = getelementptr inbounds nuw %struct.ExprEvalStep, ptr %90, i32 0, i32 1
  %92 = load ptr, ptr %91, align 8
  store i64 %89, ptr %92, align 8
  br label %93

93:                                               ; preds = %87, %76
  %94 = load ptr, ptr %11, align 8
  call void @DecrTupleDescRefCount(ptr noundef %94)
  %95 = load ptr, ptr %12, align 8
  call void @DecrTupleDescRefCount(ptr noundef %95)
  store i32 0, ptr %14, align 4
  br label %96

96:                                               ; preds = %93, %21
  call void @llvm.lifetime.end.p0(i64 1, ptr %13) #11
  call void @llvm.lifetime.end.p0(i64 8, ptr %12) #11
  call void @llvm.lifetime.end.p0(i64 8, ptr %11) #11
  call void @llvm.lifetime.end.p0(i64 24, ptr %10) #11
  call void @llvm.lifetime.end.p0(i64 8, ptr %9) #11
  call void @llvm.lifetime.end.p0(i64 8, ptr %8) #11
  call void @llvm.lifetime.end.p0(i64 8, ptr %7) #11
  %97 = load i32, ptr %14, align 4
  switch i32 %97, label %99 [
    i32 0, label %98
    i32 1, label %98
  ]

98:                                               ; preds = %96, %96
  ret void

99:                                               ; preds = %96
  unreachable
}