; Function Attrs: nounwind uwtable
define dso_local void @ExecEvalConvertRowtype(ptr readnone captures(none) %0, ptr noundef captures(none) %1, ptr noundef readonly captures(none) %2) local_unnamed_addr #0 {
  %4 = alloca %struct.HeapTupleData, align 8
  %5 = alloca i8, align 1
  call void @llvm.lifetime.start.p0(i64 24, ptr nonnull %4) #18
  call void @llvm.lifetime.start.p0(i64 1, ptr nonnull %5) #18
  store i8 0, ptr %5, align 1
  %6 = getelementptr inbounds nuw i8, ptr %1, i64 16
  %7 = load ptr, ptr %6, align 8
  %8 = load i8, ptr %7, align 1, !range !8, !noundef !9
  %9 = trunc nuw i8 %8 to i1
  br i1 %9, label %46, label %10

10:                                               ; preds = %3
  %11 = getelementptr inbounds nuw i8, ptr %1, i64 8
  %12 = load ptr, ptr %11, align 8
  %13 = load i64, ptr %12, align 8
  %14 = inttoptr i64 %13 to ptr
  %15 = tail call ptr @pg_detoast_datum(ptr noundef %14) #18
  %16 = getelementptr inbounds nuw i8, ptr %1, i64 24
  %17 = load i32, ptr %16, align 8
  %18 = getelementptr inbounds nuw i8, ptr %1, i64 32
  %19 = load ptr, ptr %18, align 8
  %20 = call fastcc ptr @get_cached_rowtype(i32 noundef %17, i32 noundef -1, ptr noundef %19, ptr noundef nonnull %5)
  call void @IncrTupleDescRefCount(ptr noundef %20) #18
  %21 = getelementptr inbounds nuw i8, ptr %1, i64 28
  %22 = load i32, ptr %21, align 4
  %23 = getelementptr inbounds nuw i8, ptr %1, i64 40
  %24 = load ptr, ptr %23, align 8
  %25 = call fastcc ptr @get_cached_rowtype(i32 noundef %22, i32 noundef -1, ptr noundef %24, ptr noundef nonnull %5)
  call void @IncrTupleDescRefCount(ptr noundef %25) #18
  %26 = load i8, ptr %5, align 1, !range !8, !noundef !9
  %27 = trunc nuw i8 %26 to i1
  br i1 %27, label %28, label %._crit_edge

._crit_edge:                                      ; preds = %10
  %.phi.trans.insert = getelementptr inbounds nuw i8, ptr %1, i64 48
  %.pre = load ptr, ptr %.phi.trans.insert, align 8
  br label %34

28:                                               ; preds = %10
  %29 = getelementptr inbounds nuw i8, ptr %2, i64 32
  %30 = load ptr, ptr %29, align 8
  %31 = load ptr, ptr @CurrentMemoryContext, align 8
  store ptr %30, ptr @CurrentMemoryContext, align 8
  %32 = call ptr @convert_tuples_by_name(ptr noundef %20, ptr noundef %25) #18
  %33 = getelementptr inbounds nuw i8, ptr %1, i64 48
  store ptr %32, ptr %33, align 8
  store ptr %31, ptr @CurrentMemoryContext, align 8
  br label %34

34:                                               ; preds = %._crit_edge, %28
  %35 = phi ptr [ %.pre, %._crit_edge ], [ %32, %28 ]
  %.val = load i32, ptr %15, align 4
  %36 = lshr i32 %.val, 2
  store i32 %36, ptr %4, align 8
  %37 = getelementptr inbounds nuw i8, ptr %4, i64 16
  store ptr %15, ptr %37, align 8
  %.not = icmp eq ptr %35, null
  br i1 %.not, label %42, label %38

38:                                               ; preds = %34
  %39 = call ptr @execute_attr_map_tuple(ptr noundef nonnull %4, ptr noundef nonnull %35) #18
  %40 = getelementptr i8, ptr %39, i64 16
  %.val23 = load ptr, ptr %40, align 8
  %41 = call i64 @HeapTupleHeaderGetDatum(ptr noundef %.val23) #18
  br label %44

42:                                               ; preds = %34
  %43 = call i64 @heap_copy_tuple_as_datum(ptr noundef nonnull %4, ptr noundef %25) #18
  br label %44

44:                                               ; preds = %42, %38
  %.sink = phi i64 [ %43, %42 ], [ %41, %38 ]
  %45 = load ptr, ptr %11, align 8
  store i64 %.sink, ptr %45, align 8
  call void @DecrTupleDescRefCount(ptr noundef %20) #18
  call void @DecrTupleDescRefCount(ptr noundef %25) #18
  br label %46

46:                                               ; preds = %3, %44
  call void @llvm.lifetime.end.p0(i64 1, ptr nonnull %5) #18
  call void @llvm.lifetime.end.p0(i64 24, ptr nonnull %4) #18
  ret void
}